target datalayout = "e-m:e-p270:32:32-p271:32:32-p272:64:64-i64:64-i128:128-f80:128-n8:16:32:64-S128"
target triple = "x86_64-pc-linux-gnu"

%struct._packet_info = type { ptr, ptr, i32, i32, %struct.nstime_t, %struct.nstime_t, %struct.nstime_t, i32, ptr, ptr, ptr, ptr, %struct._address, %struct._address, %struct._address, %struct._address, %struct._address, %struct._address, i32, ptr, i32, %struct.anon, i32, i32, i32, i32, ptr, i32, ptr, ptr, i16, i16, i32, i32, i16, i32, i32, ptr, ptr, ptr, i8, i8, i16, i16, i16, i32, i16, i16, ptr, ptr, ptr, ptr, ptr, i32 }
%struct.nstime_t = type { i64, i32 }
%struct._address = type { i32, i32, ptr, ptr }
%struct.anon = type { i8, [3 x i8] }

@hf_zbee_zdp_ext_addr = external global i32, align 4
@hf_zbee_zdp_nwk_addr = external global i32, align 4
@ett_zbee_zdp_cinfo = external global i32, align 4
@.str.9 = private unnamed_addr constant [33 x i8] c", Nwk Addr: 0x%04x, Ext Addr: %s\00", align 1

; Function Attrs: nounwind uwtable
define hidden void @dissect_zbee_zdp_device_annce(ptr noundef %0, ptr noundef %1, ptr noundef %2) #0 {
  %4 = alloca ptr, align 8
  %5 = alloca ptr, align 8
  %6 = alloca ptr, align 8
  %7 = alloca i32, align 4
  %8 = alloca i64, align 8
  %9 = alloca i32, align 4
  store ptr %0, ptr %4, align 8
  store ptr %1, ptr %5, align 8
  store ptr %2, ptr %6, align 8
  store i32 0, ptr %7, align 4
  %10 = load ptr, ptr %6, align 8
  %11 = load i32, ptr @hf_zbee_zdp_nwk_addr, align 4
  %12 = load ptr, ptr %4, align 8
  %13 = load i32, ptr %7, align 4
  %14 = call ptr @proto_tree_add_item_ret_uint(ptr noundef %10, i32 noundef %11, ptr noundef %12, i32 noundef %13, i32 noundef 2, i32 noundef -2147483648, ptr noundef %9)
  %15 = load i32, ptr %7, align 4
  %16 = add i32 %15, 2
  store i32 %16, ptr %7, align 4
  %17 = load ptr, ptr %6, align 8
  %18 = load i32, ptr @hf_zbee_zdp_ext_addr, align 4
  %19 = load ptr, ptr %4, align 8
  %20 = call i64 @zbee_parse_eui64(ptr noundef %17, i32 noundef %18, ptr noundef %19, ptr noundef %7, i32 noundef 8, ptr noundef null)
  store i64 %20, ptr %8, align 8
  %21 = load ptr, ptr %6, align 8
  %22 = load i32, ptr @ett_zbee_zdp_cinfo, align 4
  %23 = load ptr, ptr %4, align 8
  %24 = call zeroext i8 @zdp_parse_cinfo(ptr noundef %21, i32 noundef %22, ptr noundef %23, ptr noundef %7)
  %25 = load ptr, ptr %6, align 8
  %26 = load ptr, ptr %5, align 8
  %27 = load i32, ptr %9, align 4
  %28 = load ptr, ptr %5, align 8
  %29 = getelementptr inbounds %struct._packet_info, ptr %28, i32 0, i32 50
  %30 = load ptr, ptr %29, align 8
  %31 = load i64, ptr %8, align 8
  %32 = call ptr @eui64_to_display(ptr noundef %30, i64 noundef %31)
  call void (ptr, ptr, ptr, ...) @zbee_append_info(ptr noundef %25, ptr noundef %26, ptr noundef @.str.9, i32 noundef %27, ptr noundef %32)
  %33 = load ptr, ptr %4, align 8
  %34 = load i32, ptr %7, align 4
  %35 = load ptr, ptr %5, align 8
  %36 = load ptr, ptr %6, align 8
  call void @zdp_dump_excess(ptr noundef %33, i32 noundef %34, ptr noundef %35, ptr noundef %36)
  ret void
}