; Function Attrs: nounwind uwtable
define hidden void @dissect_zbee_zdp_device_annce(ptr noundef %0, ptr noundef %1, ptr noundef %2) local_unnamed_addr #0 {
  %4 = alloca i32, align 4
  %5 = alloca i32, align 4
  %6 = load i32, ptr @hf_zbee_zdp_nwk_addr, align 4
  %7 = call ptr @proto_tree_add_item_ret_uint(ptr noundef %2, i32 noundef %6, ptr noundef %0, i32 noundef 0, i32 noundef 2, i32 noundef -2147483648, ptr noundef nonnull %5) #2
  store i32 2, ptr %4, align 4
  %8 = load i32, ptr @hf_zbee_zdp_ext_addr, align 4
  %9 = call i64 @zbee_parse_eui64(ptr noundef %2, i32 noundef %8, ptr noundef %0, ptr noundef nonnull %4, i32 noundef 8, ptr noundef null) #2
  %10 = load i32, ptr @ett_zbee_zdp_cinfo, align 4
  %11 = call zeroext i8 @zdp_parse_cinfo(ptr noundef %2, i32 noundef %10, ptr noundef %0, ptr noundef nonnull %4) #2
  %12 = load i32, ptr %5, align 4
  %13 = getelementptr inbounds nuw i8, ptr %1, i64 408
  %14 = load ptr, ptr %13, align 8
  %15 = call ptr @eui64_to_display(ptr noundef %14, i64 noundef %9) #2
  call void (ptr, ptr, ptr, ...) @zbee_append_info(ptr noundef %2, ptr noundef %1, ptr noundef nonnull @.str.9, i32 noundef %12, ptr noundef %15) #2
  %16 = load i32, ptr %4, align 4
  call void @zdp_dump_excess(ptr noundef %0, i32 noundef %16, ptr noundef %1, ptr noundef %2) #2
  ret void
}